target datalayout = "e-m:e-p270:32:32-p271:32:32-p272:64:64-i64:64-i128:128-f80:128-n8:16:32:64-S128"
target triple = "x86_64-unknown-linux-gnu"

%class.ptr_vector = type { %class.vector }
%class.vector = type { ptr }
%class.svector.11 = type { %class.vector.12 }
%class.vector.12 = type { ptr }
%class.ptr_vector.43 = type { %class.vector.44 }
%class.vector.44 = type { ptr }
%"class.smt::theory_special_relations" = type <{ %"class.smt::theory.base", [3 x i8], %class.special_relations_util, %class.ptr_vector, %class.svector.11, %class.ptr_vector.45, %class.obj_map.47, %class.u_map.52, i8, [7 x i8] }>
%"class.smt::theory.base" = type <{ ptr, i32, [4 x i8], ptr, ptr, %class.ptr_vector.43, %class.svector.11, i32, i8 }>
%class.special_relations_util = type <{ ptr, i32, [4 x i8] }>
%class.ptr_vector.45 = type { %class.vector.46 }
%class.vector.46 = type { ptr }
%class.obj_map.47 = type { %class.core_hashtable.48 }
%class.core_hashtable.48 = type <{ ptr, i32, i32, i32, [4 x i8] }>
%class.u_map.52 = type { %class.map.53 }
%class.map.53 = type { %class.table2map.54 }
%class.table2map.54 = type { %class.core_hashtable.55 }
%class.core_hashtable.55 = type <{ ptr, i32, i32, i32, [4 x i8] }>
%"class.smt::theory_special_relations::atom" = type <{ i32, [4 x i8], ptr, i8, [3 x i8], i32, i32, i32, i32, [4 x i8] }>
%struct._key_data = type { i32, ptr }

; Function Attrs: mustprogress nounwind uwtable
define linkonce_odr hidden void @_ZN9_key_dataIjPN3smt24theory_special_relations4atomEEC2ERKj(ptr noundef nonnull align 8 dereferenceable(16) %this, ptr noundef nonnull align 4 dereferenceable(4) %k) unnamed_addr #4 comdat align 2 {
entry:
  %this.addr = alloca ptr, align 8
  %k.addr = alloca ptr, align 8
  store ptr %this, ptr %this.addr, align 8
  store ptr %k, ptr %k.addr, align 8
  %this1 = load ptr, ptr %this.addr, align 8
  %m_key = getelementptr inbounds %struct._key_data, ptr %this1, i32 0, i32 0
  %0 = load ptr, ptr %k.addr, align 8
  %1 = load i32, ptr %0, align 4
  store i32 %1, ptr %m_key, align 8
  ret void
}

; Function Attrs: mustprogress uwtable
define linkonce_odr hidden void @_ZN9table2mapI17default_map_entryIjPN3smt24theory_special_relations4atomEE6u_hash4u_eqE6removeERKj(ptr noundef nonnull align 8 dereferenceable(24) %this, ptr noundef nonnull align 4 dereferenceable(4) %k) #5 comdat align 2 {
entry:
  %this.addr = alloca ptr, align 8
  %k.addr = alloca ptr, align 8
  %ref.tmp = alloca %struct._key_data, align 8
  store ptr %this, ptr %this.addr, align 8
  store ptr %k, ptr %k.addr, align 8
  %this1 = load ptr, ptr %this.addr, align 8
  %m_table = getelementptr inbounds %class.table2map.54, ptr %this1, i32 0, i32 0
  %0 = load ptr, ptr %k.addr, align 8
  call void @_ZN9_key_dataIjPN3smt24theory_special_relations4atomEEC2ERKj(ptr noundef nonnull align 8 dereferenceable(16) %ref.tmp, ptr noundef nonnull align 4 dereferenceable(4) %0)
  call void @_ZN14core_hashtableI17default_map_entryIjPN3smt24theory_special_relations4atomEEN9table2mapIS5_6u_hash4u_eqE15entry_hash_procENS9_13entry_eq_procEE6removeERK9_key_dataIjS4_E(ptr noundef nonnull align 8 dereferenceable(20) %m_table, ptr noundef nonnull align 8 dereferenceable(16) %ref.tmp)
  ret void
}

; Function Attrs: mustprogress nounwind uwtable
define linkonce_odr hidden noundef i32 @_ZNK6vectorIPN3smt24theory_special_relations4atomELb0EjE4sizeEv(ptr noundef nonnull align 8 dereferenceable(8) %this) #4 comdat align 2 {
entry:
  %retval = alloca i32, align 4
  %this.addr = alloca ptr, align 8
  store ptr %this, ptr %this.addr, align 8
  %this1 = load ptr, ptr %this.addr, align 8
  %m_data = getelementptr inbounds %class.vector, ptr %this1, i32 0, i32 0
  %0 = load ptr, ptr %m_data, align 8
  %cmp = icmp eq ptr %0, null
  br i1 %cmp, label %if.then, label %if.end

if.then:                                          ; preds = %entry
  store i32 0, ptr %retval, align 4
  br label %return

if.end:                                           ; preds = %entry
  %m_data2 = getelementptr inbounds %class.vector, ptr %this1, i32 0, i32 0
  %1 = load ptr, ptr %m_data2, align 8
  %arrayidx = getelementptr inbounds i32, ptr %1, i64 -1
  %2 = load i32, ptr %arrayidx, align 4
  store i32 %2, ptr %retval, align 4
  br label %return

return:                                           ; preds = %if.end, %if.then
  %3 = load i32, ptr %retval, align 4
  ret i32 %3
}

; Function Attrs: mustprogress nounwind uwtable
define linkonce_odr hidden void @_ZN6vectorIPN3smt24theory_special_relations4atomELb0EjE6shrinkEj(ptr noundef nonnull align 8 dereferenceable(8) %this, i32 noundef %s) #4 comdat align 2 {
entry:
  %this.addr = alloca ptr, align 8
  %s.addr = alloca i32, align 4
  store ptr %this, ptr %this.addr, align 8
  store i32 %s, ptr %s.addr, align 4
  %this1 = load ptr, ptr %this.addr, align 8
  %m_data = getelementptr inbounds %class.vector, ptr %this1, i32 0, i32 0
  %0 = load ptr, ptr %m_data, align 8
  %tobool = icmp ne ptr %0, null
  br i1 %tobool, label %if.then, label %if.else

if.then:                                          ; preds = %entry
  %1 = load i32, ptr %s.addr, align 4
  %m_data2 = getelementptr inbounds %class.vector, ptr %this1, i32 0, i32 0
  %2 = load ptr, ptr %m_data2, align 8
  %arrayidx = getelementptr inbounds i32, ptr %2, i64 -1
  store i32 %1, ptr %arrayidx, align 4
  br label %if.end

if.else:                                          ; preds = %entry
  br label %if.end

if.end:                                           ; preds = %if.else, %if.then
  ret void
}

; Function Attrs: mustprogress uwtable
define linkonce_odr hidden void @_Z7deallocIN3smt24theory_special_relations4atomEEvPT_(ptr noundef %ptr) #5 comdat {
entry:
  %ptr.addr = alloca ptr, align 8
  store ptr %ptr, ptr %ptr.addr, align 8
  %0 = load ptr, ptr %ptr.addr, align 8
  %cmp = icmp eq ptr %0, null
  br i1 %cmp, label %if.then, label %if.end

if.then:                                          ; preds = %entry
  br label %return

if.end:                                           ; preds = %entry
  %1 = load ptr, ptr %ptr.addr, align 8
  call void @_ZN6memory10deallocateEPv(ptr noundef %1)
  br label %return

return:                                           ; preds = %if.end, %if.then
  ret void
}

; Function Attrs: mustprogress uwtable
define linkonce_odr hidden void @_ZN9table2mapI17default_map_entryIjPN3smt24theory_special_relations4atomEE6u_hash4u_eqE5eraseERKj(ptr noundef nonnull align 8 dereferenceable(24) %this, ptr noundef nonnull align 4 dereferenceable(4) %k) #5 comdat align 2 {
entry:
  %this.addr = alloca ptr, align 8
  %k.addr = alloca ptr, align 8
  store ptr %this, ptr %this.addr, align 8
  store ptr %k, ptr %k.addr, align 8
  %this1 = load ptr, ptr %this.addr, align 8
  %0 = load ptr, ptr %k.addr, align 8
  call void @_ZN9table2mapI17default_map_entryIjPN3smt24theory_special_relations4atomEE6u_hash4u_eqE6removeERKj(ptr noundef nonnull align 8 dereferenceable(24) %this1, ptr noundef nonnull align 4 dereferenceable(4) %0)
  ret void
}

; Function Attrs: mustprogress nounwind uwtable
define linkonce_odr hidden noundef i32 @_ZNK3smt24theory_special_relations4atom3varEv(ptr noundef nonnull align 8 dereferenceable(36) %this) #4 comdat align 2 {
entry:
  %this.addr = alloca ptr, align 8
  store ptr %this, ptr %this.addr, align 8
  %this1 = load ptr, ptr %this.addr, align 8
  %m_bvar = getelementptr inbounds %"class.smt::theory_special_relations::atom", ptr %this1, i32 0, i32 0
  %0 = load i32, ptr %m_bvar, align 8
  ret i32 %0
}

; Function Attrs: mustprogress nounwind uwtable
define linkonce_odr hidden noundef ptr @_ZN6vectorIPN3smt24theory_special_relations4atomELb0EjE3endEv(ptr noundef nonnull align 8 dereferenceable(8) %this) #4 comdat align 2 {
entry:
  %this.addr = alloca ptr, align 8
  store ptr %this, ptr %this.addr, align 8
  %this1 = load ptr, ptr %this.addr, align 8
  %m_data = getelementptr inbounds %class.vector, ptr %this1, i32 0, i32 0
  %0 = load ptr, ptr %m_data, align 8
  %call = call noundef i32 @_ZNK6vectorIPN3smt24theory_special_relations4atomELb0EjE4sizeEv(ptr noundef nonnull align 8 dereferenceable(8) %this1)
  %idx.ext = zext i32 %call to i64
  %add.ptr = getelementptr inbounds ptr, ptr %0, i64 %idx.ext
  ret ptr %add.ptr
}

; Function Attrs: mustprogress nounwind uwtable
define linkonce_odr hidden noundef ptr @_ZN6vectorIPN3smt24theory_special_relations4atomELb0EjE5beginEv(ptr noundef nonnull align 8 dereferenceable(8) %this) #4 comdat align 2 {
entry:
  %this.addr = alloca ptr, align 8
  store ptr %this, ptr %this.addr, align 8
  %this1 = load ptr, ptr %this.addr, align 8
  %m_data = getelementptr inbounds %class.vector, ptr %this1, i32 0, i32 0
  %0 = load ptr, ptr %m_data, align 8
  ret ptr %0
}

; Function Attrs: mustprogress uwtable
define hidden void @_ZN3smt24theory_special_relations9del_atomsEj(ptr noundef nonnull align 8 dereferenceable(145) %this, i32 noundef %old_size) #5 align 2 {
entry:
  %this.addr = alloca ptr, align 8
  %old_size.addr = alloca i32, align 4
  %begin = alloca ptr, align 8
  %it = alloca ptr, align 8
  %a = alloca ptr, align 8
  %ref.tmp = alloca i32, align 4
  store ptr %this, ptr %this.addr, align 8
  store i32 %old_size, ptr %old_size.addr, align 4
  %this1 = load ptr, ptr %this.addr, align 8
  %m_atoms = getelementptr inbounds %"class.smt::theory_special_relations", ptr %this1, i32 0, i32 3
  %call = call noundef ptr @_ZN6vectorIPN3smt24theory_special_relations4atomELb0EjE5beginEv(ptr noundef nonnull align 8 dereferenceable(8) %m_atoms)
  %0 = load i32, ptr %old_size.addr, align 4
  %idx.ext = zext i32 %0 to i64
  %add.ptr = getelementptr inbounds ptr, ptr %call, i64 %idx.ext
  store ptr %add.ptr, ptr %begin, align 8
  %m_atoms2 = getelementptr inbounds %"class.smt::theory_special_relations", ptr %this1, i32 0, i32 3
  %call3 = call noundef ptr @_ZN6vectorIPN3smt24theory_special_relations4atomELb0EjE3endEv(ptr noundef nonnull align 8 dereferenceable(8) %m_atoms2)
  store ptr %call3, ptr %it, align 8
  br label %while.cond

while.cond:                                       ; preds = %while.body, %entry
  %1 = load ptr, ptr %it, align 8
  %2 = load ptr, ptr %begin, align 8
  %cmp = icmp ne ptr %1, %2
  br i1 %cmp, label %while.body, label %while.end

while.body:                                       ; preds = %while.cond
  %3 = load ptr, ptr %it, align 8
  %incdec.ptr = getelementptr inbounds ptr, ptr %3, i32 -1
  store ptr %incdec.ptr, ptr %it, align 8
  %4 = load ptr, ptr %it, align 8
  %5 = load ptr, ptr %4, align 8
  store ptr %5, ptr %a, align 8
  %m_bool_var2atom = getelementptr inbounds %"class.smt::theory_special_relations", ptr %this1, i32 0, i32 7
  %6 = load ptr, ptr %a, align 8
  %call4 = call noundef i32 @_ZNK3smt24theory_special_relations4atom3varEv(ptr noundef nonnull align 8 dereferenceable(36) %6)
  store i32 %call4, ptr %ref.tmp, align 4
  call void @_ZN9table2mapI17default_map_entryIjPN3smt24theory_special_relations4atomEE6u_hash4u_eqE5eraseERKj(ptr noundef nonnull align 8 dereferenceable(24) %m_bool_var2atom, ptr noundef nonnull align 4 dereferenceable(4) %ref.tmp)
  %7 = load ptr, ptr %a, align 8
  call void @_Z7deallocIN3smt24theory_special_relations4atomEEvPT_(ptr noundef %7)
  br label %while.cond, !llvm.loop !24

while.end:                                        ; preds = %while.cond
  %m_atoms5 = getelementptr inbounds %"class.smt::theory_special_relations", ptr %this1, i32 0, i32 3
  %8 = load i32, ptr %old_size.addr, align 4
  call void @_ZN6vectorIPN3smt24theory_special_relations4atomELb0EjE6shrinkEj(ptr noundef nonnull align 8 dereferenceable(8) %m_atoms5, i32 noundef %8)
  ret void
}