; Function Attrs: mustprogress uwtable
define hidden void @_ZN3smt24theory_special_relations9del_atomsEj(ptr noundef nonnull align 8 dereferenceable(145) %this, i32 noundef %old_size) local_unnamed_addr #3 align 2 {
entry:
  %ref.tmp.i.i = alloca %struct._key_data, align 8
  %m_atoms = getelementptr inbounds i8, ptr %this, i64 72
  %0 = load ptr, ptr %m_atoms, align 8
  %idx.ext = zext i32 %old_size to i64
  %add.ptr = getelementptr inbounds ptr, ptr %0, i64 %idx.ext
  %cmp.i.i = icmp eq ptr %0, null
  br i1 %cmp.i.i, label %_ZN6vectorIPN3smt24theory_special_relations4atomELb0EjE3endEv.exit, label %if.end.i.i

if.end.i.i:                                       ; preds = %entry
  %arrayidx.i.i = getelementptr inbounds i8, ptr %0, i64 -4
  %1 = load i32, ptr %arrayidx.i.i, align 4
  %2 = zext i32 %1 to i64
  br label %_ZN6vectorIPN3smt24theory_special_relations4atomELb0EjE3endEv.exit

_ZN6vectorIPN3smt24theory_special_relations4atomELb0EjE3endEv.exit: ; preds = %entry, %if.end.i.i
  %retval.0.i.i = phi i64 [ %2, %if.end.i.i ], [ 0, %entry ]
  %cmp.not6 = icmp eq i64 %retval.0.i.i, %idx.ext
  br i1 %cmp.not6, label %while.end, label %_Z7deallocIN3smt24theory_special_relations4atomEEvPT_.exit.lr.ph

_Z7deallocIN3smt24theory_special_relations4atomEEvPT_.exit.lr.ph: ; preds = %_ZN6vectorIPN3smt24theory_special_relations4atomELb0EjE3endEv.exit
  %add.ptr.i = getelementptr inbounds ptr, ptr %0, i64 %retval.0.i.i
  %m_bool_var2atom = getelementptr inbounds i8, ptr %this, i64 120
  br label %_Z7deallocIN3smt24theory_special_relations4atomEEvPT_.exit

_Z7deallocIN3smt24theory_special_relations4atomEEvPT_.exit: ; preds = %_Z7deallocIN3smt24theory_special_relations4atomEEvPT_.exit.lr.ph, %_Z7deallocIN3smt24theory_special_relations4atomEEvPT_.exit
  %it.07 = phi ptr [ %add.ptr.i, %_Z7deallocIN3smt24theory_special_relations4atomEEvPT_.exit.lr.ph ], [ %incdec.ptr, %_Z7deallocIN3smt24theory_special_relations4atomEEvPT_.exit ]
  %incdec.ptr = getelementptr inbounds i8, ptr %it.07, i64 -8
  %3 = load ptr, ptr %incdec.ptr, align 8
  %4 = load i32, ptr %3, align 8
  call void @llvm.lifetime.start.p0(i64 16, ptr nonnull %ref.tmp.i.i)
  store i32 %4, ptr %ref.tmp.i.i, align 8
  call void @_ZN14core_hashtableI17default_map_entryIjPN3smt24theory_special_relations4atomEEN9table2mapIS5_6u_hash4u_eqE15entry_hash_procENS9_13entry_eq_procEE6removeERK9_key_dataIjS4_E(ptr noundef nonnull align 8 dereferenceable(20) %m_bool_var2atom, ptr noundef nonnull align 8 dereferenceable(16) %ref.tmp.i.i)
  call void @llvm.lifetime.end.p0(i64 16, ptr nonnull %ref.tmp.i.i)
  call void @_ZN6memory10deallocateEPv(ptr noundef nonnull %3)
  %cmp.not = icmp eq ptr %incdec.ptr, %add.ptr
  br i1 %cmp.not, label %while.end.loopexit, label %_Z7deallocIN3smt24theory_special_relations4atomEEvPT_.exit, !llvm.loop !45

while.end.loopexit:                               ; preds = %_Z7deallocIN3smt24theory_special_relations4atomEEvPT_.exit
  %.pre = load ptr, ptr %m_atoms, align 8
  br label %while.end

while.end:                                        ; preds = %while.end.loopexit, %_ZN6vectorIPN3smt24theory_special_relations4atomELb0EjE3endEv.exit
  %5 = phi ptr [ %.pre, %while.end.loopexit ], [ %0, %_ZN6vectorIPN3smt24theory_special_relations4atomELb0EjE3endEv.exit ]
  %tobool.not.i = icmp eq ptr %5, null
  br i1 %tobool.not.i, label %_ZN6vectorIPN3smt24theory_special_relations4atomELb0EjE6shrinkEj.exit, label %if.then.i

if.then.i:                                        ; preds = %while.end
  %arrayidx.i = getelementptr inbounds i8, ptr %5, i64 -4
  store i32 %old_size, ptr %arrayidx.i, align 4
  br label %_ZN6vectorIPN3smt24theory_special_relations4atomELb0EjE6shrinkEj.exit

_ZN6vectorIPN3smt24theory_special_relations4atomELb0EjE6shrinkEj.exit: ; preds = %while.end, %if.then.i
  ret void
}